(lp1
I1040
aI3116
aI2193
aI3215
aI1003
aI2806
aI3573
aI52
aI2538
aI3947
aI1172
aI1544
aI197
aI3819
aI192
aI2430
aI1218
aI2865
aI3680
aI2836
aI2362
aI3678
aI2900
aI198
aI199
aI2507
aI1099
aI2189
aI1356
aI720
aI3189
aI193
aI814
aI2966
aI1886
aI178
aI2835
aI2813
aI1155
aI1053
aI200
aI2402
aI3163
aI1572
aI2417
aI3634
aI1301
aI1934
aI2674
aI2604
aI2011
aI201
aI3483
aI3795
aI2467
aI3917
aI1331
aI2619
aI3297
aI202
aI179
aI203
aI185
aI206
aI2695
aI207
aI3756
aI3822
aI205
aI2273
aI2321
aI1771
aI1706
aI4072
aI208
aI4054
aI209
aI2105
aI1309
aI47
aI1009
aI3190
aI1509
aI3051
aI1841
aI3679
aI3613
aI2906
aI3361
aI2560
aI211
aI2414
aI1947
aI3882
aI2537
aI213
aI214
aI216
aI2725
aI81
aI2358
aI3114
aI1940
aI1035
aI2938
aI1942
aI1237
aI3800
aI2845
aI2547
aI4093
aI218
aI223
aI2904
aI224
aI1488
aI1050
aI3314
aI225
aI3463
aI2068
aI226
aI2099
aI1379
aI2111
aI2357
aI1256
aI2235
aI3971
aI2141
aI3185
aI3528
aI2267
aI3908
aI2692
aI1717
aI1794
aI3515
aI3351
aI227
aI2015
aI4083
aI82
aI3031
aI3248
aI222
aI1292
aI3404
aI3550
aI3242
aI1628
aI1821
aI982
aI1721
aI3046
aI3481
aI221
aI1601
aI2752
aI61
aI1041
aI2595
aI1086
aI2513
aI3726
aI3939
aI212
aI1741
aI2536
aI219
aI3556
aI1277
aI2301
aI2716
aI2284
aI217
aI3499
aI215
aI1181
aI2974
aI1797
aI735
aI736
aI3075
aI3097
aI1335
aI1638
aI3007
aI12
aI759
aI3471
aI3195
aI3295
aI2116
aI1130
aI3673
aI1645
aI760
aI3462
aI3661
aI4087
aI2951
aI3893
aI3343
aI761
aI1804
aI2297
aI2331
aI1350
aI1049
aI3363
aI1017
aI2206
aI3380
aI3801
aI739
aI1113
aI750
aI3347
aI768
aI2971
aI773
aI2376
aI4137
aI775
aI4047
aI2746
aI2165
aI1752
aI2578
aI774
aI3171
aI1647
aI2401
aI776
aI3652
aI2010
aI3532
aI3691
aI1852
aI2098
aI2965
aI778
aI1928
aI2305
aI1912
aI782
aI2484
aI2460
aI3328
aI3332
aI2897
aI3186
aI2660
aI1337
aI3516
aI3178
aI783
aI3940
aI781
aI2448
aI1081
aI4049
aI779
aI1197
aI984
aI2025
aI780
aI2516
aI2061
aI4103
aI1814
aI777
aI1091
aI4025
aI1129
aI3654
aI772
aI3927
aI2494
aI771
aI3739
aI4070
aI2980
aI1148
aI1518
aI770
aI769
aI3175
aI3790
aI3470
aI4036
aI1095
aI34
aI754
aI2916
aI1897
aI3703
aI755
aI3399
aI1250
aI2459
aI4046
aI2821
aI4132
aI1001
aI2276
aI2617
aI2854
aI2901
aI753
aI2158
aI3401
aI2299
aI229
aI1871
aI738
aI2234
aI2286
aI1149
aI2574
aI3067
aI3896
aI1980
aI1190
aI2033
aI1757
aI1398
aI3451
aI1853
aI1158
aI2812
aI3924
aI1631
aI1290
aI1562
aI3649
aI2456
aI741
aI740
aI2893
aI3561
aI743
aI744
aI3530
aI1850
aI1825
aI748
aI2178
aI3618
aI749
aI3342
aI2117
aI2708
aI4110
aI742
aI1392
aI1322
aI3107
aI3108
aI3881
aI2104
aI3505
aI985
aI745
aI3498
aI1964
aI3762
aI10
aI1365
aI752
aI751
aI3835
aI1391
aI747
aI756
aI3087
aI1390
aI757
aI758
aI1048
aI3476
aI2239
aI1733
aI13
aI766
aI1209
aI764
aI2509
aI762
aI2397
aI1815
aI1139
aI2990
aI1851
aI767
aI2545
aI2062
aI765
aI2975
aI1932
aI763
aI2947
aI3805
aI737
aI63
aI2085
aI2016
aI1106
aI3888
aI732
aI3854
aI733
aI734
aI3465
aI3344
aI1650
aI1334
aI731
aI3487
aI2475
aI1511
aI934
aI894
aI3721
aI3220
aI1609
aI935
aI2222
aI3868
aI889
aI1773
aI1064
aI1060
aI3784
aI1429
aI3657
aI1496
aI2051
aI3139
aI2928
aI2328
aI3289
aI926
aI3081
aI2593
aI927
aI2426
aI4005
aI1268
aI1693
aI1346
aI2673
aI1297
aI2463
aI1783
aI2050
aI888
aI3778
aI4026
aI1742
aI3405
aI1919
aI3834
aI3595
aI1431
aI4019
aI936
aI3523
aI1012
aI4056
aI3590
aI3972
aI928
aI2512
aI3512
aI932
aI1777
aI883
aI892
aI887
aI937
aI1472
aI113
aI1502
aI1375
aI2018
aI2088
aI1704
aI2215
aI3247
aI1498
aI2832
aI3782
aI2644
aI2252
aI2096
aI1813
aI3100
aI3936
aI884
aI2026
aI15
aI1758
aI2948
aI2320
aI2392
aI2641
aI3951
aI1042
aI3172
aI3856
aI942
aI2333
aI2136
aI943
aI1526
aI1523
aI1527
aI1504
aI886
aI1634
aI2712
aI1300
aI944
aI2208
aI3249
aI3011
aI945
aI946
aI1144
aI2607
aI3391
aI1798
aI3372
aI2983
aI948
aI1251
aI1843
aI3447
aI3873
aI941
aI1428
aI2618
aI1063
aI4034
aI1062
aI1170
aI2149
aI1085
aI3448
aI2157
aI1785
aI1140
aI3264
aI3989
aI1953
aI885
aI2087
aI3085
aI2399
aI2742
aI2657
aI951
aI954
aI3095
aI956
aI4146
aI3200
aI955
aI2304
aI949
aI3193
aI958
aI2391
aI959
aI4073
aI957
aI3602
aI953
aI104
aI2119
aI1998
aI2370
aI1458
aI3491
aI2517
aI1374
aI3715
aI2782
aI3540
aI2240
aI1349
aI4069
aI1444
aI2431
aI952
aI1211
aI3194
aI1938
aI950
aI3221
aI3785
aI891
aI3101
aI962
aI960
aI3120
aI931
aI3562
aI1421
aI2777
aI3090
aI961
aI890
aI3466
aI1968
aI2924
aI3708
aI1198
aI3685
aI3355
aI3235
aI3306
aI1098
aI2956
aI4015
aI3188
aI861
aI3474
aI1385
aI4086
aI3321
aI3885
aI1200
aI925
aI893
aI939
aI933
aI16
aI3298
aI1607
aI1832
aI2485
aI2650
aI1474
aI1363
aI938
aI3255
aI929
aI930
aI3962
aI2307
aI2348
aI3330
aI1595
aI2950
aI988
aI2115
aI3624
aI3555
aI3222
aI3356
aI2717
aI1435
aI2518
aI2486
aI1907
aI657
aI1973
aI3435
aI691
aI693
aI1927
aI694
aI695
aI2561
aI3467
aI2187
aI1885
aI3009
aI3473
aI1917
aI696
aI3884
aI3993
aI4128
aI697
aI4028
aI3291
aI1345
aI3142
aI3538
aI2647
aI1872
aI692
aI69
aI689
aI2079
aI690
aI3079
aI3056
aI670
aI3128
aI707
aI2197
aI2979
aI3443
aI2027
aI1427
aI2946
aI1084
aI709
aI3890
aI2078
aI2175
aI3110
aI4135
aI4003
aI1879
aI710
aI3169
aI1299
aI1306
aI3934
aI711
aI2851
aI708
aI3366
aI1162
aI4156
aI1475
aI21
aI658
aI2953
aI3267
aI1025
aI3459
aI3210
aI19
aI2686
aI3303
aI1217
aI2642
aI2134
aI667
aI3019
aI1302
aI1812
aI668
aI2709
aI663
aI70
aI2653
aI3161
aI2540
aI1167
aI1618
aI1592
aI1057
aI701
aI2021
aI2599
aI705
aI706
aI2838
aI2659
aI2419
aI704
aI2525
aI4023
aI2541
aI703
aI1723
aI3407
aI3966
aI3082
aI3415
aI4024
aI1684
aI1101
aI1195
aI702
aI3282
aI2802
aI2453
aI2418
aI700
aI2473
aI1228
aI1121
aI1056
aI2994
aI3763
aI2168
aI1643
aI2091
aI1425
aI1809
aI3816
aI1386
aI698
aI1413
aI2978
aI699
aI1817
aI680
aI2127
aI681
aI682
aI3995
aI683
aI2552
aI3245
aI2564
aI3692
aI4085
aI2223
aI1380
aI3104
aI676
aI1539
aI2804
aI2685
aI3776
aI656
aI1465
aI1014
aI3938
aI677
aI3503
aI1862
aI3610
aI678
aI4038
aI3379
aI2438
aI679
aI2530
aI662
aI1066
aI3402
aI2808
aI2129
aI3241
aI2294
aI666
aI684
aI1996
aI686
aI1516
aI1892
aI1808
aI2500
aI3063
aI3970
aI1949
aI687
aI3205
aI688
aI1910
aI3233
aI685
aI3449
aI3930
aI2758
aI665
aI1878
aI4138
aI1387
aI1827
aI1579
aI1997
aI101
aI675
aI2176
aI2869
aI3897
aI2023
aI673
aI674
aI2809
aI2090
aI112
aI2230
aI4144
aI3143
aI2377
aI2491
aI3921
aI672
aI1307
aI2830
aI3420
aI2807
aI2787
aI669
aI671
aI3928
aI664
aI3765
aI3637
aI3626
aI71
aI3469
aI659
aI2585
aI2856
aI3072
aI2689
aI2123
aI2332
aI1978
aI3815
aI3033
aI3335
aI2455
aI3
aI2715
aI3899
aI661
aI2133
aI2372
aI20
aI2335
aI1759
aI3375
aI3151
aI3923
aI3912
aI3438
aI660
aI3699
aI3359
aI495
aI3408
aI520
aI522
aI517
aI501
aI1895
aI2143
aI1629
aI502
aI1772
aI2661
aI79
aI1107
aI3293
aI1412
aI2009
aI1690
aI2038
aI497
aI2771
aI4119
aI1229
aI2803
aI3544
aI2780
aI3552
aI2961
aI2735
aI3270
aI2565
aI509
aI2519
aI508
aI506
aI2646
aI505
aI1311
aI2343
aI3199
aI2298
aI2815
aI1714
aI1119
aI494
aI493
aI4002
aI492
aI1596
aI2382
aI2347
aI477
aI4051
aI4149
aI2036
aI2196
aI3088
aI479
aI1494
aI498
aI2570
aI3527
aI2173
aI3246
aI2047
aI3396
aI4067
aI499
aI2682
aI1898
aI3660
aI2144
aI1983
aI1874
aI3887
aI3701
aI3591
aI971
aI519
aI474
aI516
aI1273
aI2681
aI4007
aI1730
aI1829
aI3076
aI2895
aI2244
aI2970
aI2228
aI3960
aI2800
aI514
aI3994
aI512
aI513
aI1715
aI504
aI1847
aI2069
aI510
aI511
aI2843
aI2562
aI3798
aI1026
aI3325
aI3832
aI1007
aI3045
aI1409
aI1566
aI4060
aI4045
aI1867
aI1131
aI1613
aI507
aI1484
aI2251
aI1588
aI1587
aI518
aI3115
aI515
aI3606
aI1244
aI3969
aI3883
aI1760
aI4095
aI2309
aI3475
aI3394
aI2672
aI1352
aI480
aI496
aI3758
aI3725
aI500
aI1249
aI107
aI1531
aI2981
aI2723
aI478
aI3570
aI2137
aI3665
aI481
aI2095
aI3250
aI2470
aI476
aI2855
aI2265
aI22
aI3638
aI521
aI523
aI1112
aI3852
aI3983
aI3013
aI1987
aI3929
aI1750
aI3656
aI2985
aI2999
aI3764
aI1561
aI1336
aI503
aI3705
aI3017
aI59
aI491
aI3296
aI2415
aI2523
aI2740
aI3810
aI490
aI978
aI1991
aI3145
aI489
aI2254
aI488
aI2263
aI3672
aI3592
aI483
aI484
aI1047
aI475
aI482
aI1267
aI2587
aI1698
aI1778
aI1722
aI3028
aI4032
aI1810
aI1287
aI485
aI486
aI487
aI3266
aI1423
aI2186
aI537
aI1002
aI2408
aI526
aI3236
aI532
aI2469
aI3700
aI1298
aI533
aI3902
aI3317
aI3817
aI2160
aI3517
aI3998
aI539
aI1911
aI2868
aI1150
aI3065
aI535
aI1105
aI2008
aI2103
aI540
aI3767
aI1565
aI1557
aI3478
aI536
aI2310
aI2944
aI2822
aI3406
aI1597
aI2445
aI3312
aI3437
aI3791
aI3036
aI2181
aI3588
aI2774
aI1598
aI1447
aI2336
aI3709
aI3133
aI3005
aI541
aI3445
aI1224
aI1505
aI1132
aI2024
aI3181
aI1445
aI2903
aI2998
aI1487
aI1869
aI1796
aI1023
aI3891
aI1455
aI1043
aI542
aI2316
aI3069
aI2553
aI534
aI3999
aI1896
aI2502
aI543
aI1667
aI2300
aI2605
aI2224
aI3243
aI2634
aI1520
aI3021
aI3070
aI4078
aI538
aI3963
aI3759
aI3377
aI24
aI2213
aI2442
aI1203
aI2212
aI2796
aI1558
aI3486
aI3352
aI2986
aI2506
aI2272
aI1529
aI2880
aI2210
aI525
aI1134
aI3068
aI529
aI3622
aI2637
aI1582
aI2760
aI3153
aI2384
aI3557
aI1238
aI1577
aI3329
aI2306
aI1762
aI3898
aI1282
aI2218
aI2579
aI1070
aI4124
aI2505
aI3596
aI2248
aI530
aI3531
aI1422
aI3418
aI3421
aI527
aI2761
aI1213
aI531
aI3571
aI1022
aI1720
aI2232
aI1508
aI4043
aI2677
aI528
aI36
aI2125
aI3811
aI1312
aI3825
aI3301
aI411
aI1159
aI3519
aI375
aI1776
aI1573
aI3548
aI3364
aI3170
aI3494
aI412
aI2907
aI4055
aI1530
aI408
aI1905
aI2045
aI3099
aI2121
aI1491
aI1710
aI3341
aI2080
aI3607
aI3586
aI2440
aI2274
aI3112
aI3585
aI430
aI433
aI2424
aI3382
aI3173
aI1697
aI1774
aI1100
aI1705
aI1718
aI443
aI1442
aI444
aI1204
aI1031
aI1326
aI431
aI1006
aI436
aI3658
aI1324
aI2317
aI3002
aI3191
aI1097
aI434
aI1133
aI3098
aI435
aI3261
aI2991
aI2048
aI1775
aI4089
aI2858
aI1168
aI3411
aI2859
aI3937
aI3152
aI441
aI3775
aI2364
aI3547
aI3802
aI1930
aI442
aI3603
aI1966
aI1882
aI2870
aI1688
aI410
aI439
aI2713
aI445
aI2280
aI3718
aI2342
aI446
aI440
aI438
aI1456
aI1620
aI2303
aI4152
aI437
aI3455
aI2020
aI1916
aI4076
aI432
aI2238
aI2086
aI2452
aI1044
aI414
aI1988
aI1619
aI3202
aI423
aI1317
aI2389
aI3911
aI3105
aI3949
aI2889
aI424
aI425
aI1578
aI1639
aI2794
aI409
aI1977
aI1856
aI2106
aI3208
aI3260
aI2884
aI2290
aI2311
aI1951
aI421
aI2042
aI2480
aI3436
aI422
aI3826
aI981
aI416
aI417
aI376
aI4122
aI43
aI415
aI419
aI1959
aI2268
aI1145
aI1125
aI3385
aI1452
aI420
aI2654
aI2243
aI1471
aI418
aI62
aI2138
aI447
aI1436
aI1989
aI3694
aI427
aI3285
aI428
aI2878
aI2597
aI429
aI1608
aI2622
aI2670
aI1974
aI3049
aI3646
aI3677
aI108
aI114
aI2092
aI2844
aI3682
aI153
aI1416
aI1599
aI3513
aI2202
aI2704
aI2404
aI1255
aI74
aI3639
aI3493
aI168
aI2171
aI170
aI2201
aI4044
aI2289
aI3589
aI1685
aI2220
aI2566
aI171
aI1074
aI4098
aI1173
aI2754
aI172
aI1286
aI601
aI976
aI1612
aI2423
aI174
aI1178
aI3880
aI1222
aI1083
aI2993
aI1901
aI2004
aI175
aI176
aI173
aI3895
aI1713
aI169
aI2639
aI177
aI1305
aI147
aI150
aI165
aI2827
aI3875
aI3454
aI3213
aI3874
aI1744
aI4012
aI1970
aI3140
aI1535
aI1922
aI3461
aI2132
aI1876
aI2563
aI1142
aI2366
aI2995
aI1510
aI1109
aI4111
aI3749
aI164
aI3310
aI3793
aI1534
aI1600
aI3593
aI146
aI3456
aI3257
aI2205
aI163
aI2645
aI3290
aI162
aI973
aI3735
aI154
aI3271
aI4033
aI2315
aI155
aI2264
aI156
aI2592
aI1958
aI2255
aI3124
aI3608
aI158
aI3113
aI1115
aI149
aI1264
aI2954
aI1533
aI3381
aI2128
aI148
aI157
aI1303
aI152
aI2535
aI3687
aI4084
aI1270
aI3566
aI3029
aI4014
aI2539
aI3977
aI2400
aI159
aI387
aI3950
aI2107
aI4016
aI3425
aI1127
aI2039
aI160
aI151
aI4040
aI1662
aI1492
aI58
aI3578
aI2246
aI2225
aI3549
aI2363
aI161
aI1254
aI1079
aI2151
aI2675
aI2743
aI2701
aI2925
aI3644
aI2596
aI3058
aI2219
aI166
aI2385
aI1278
aI2112
aI3879
aI167
aI4061
aI2997
aI3978
aI2762
aI2198
aI124
aI1686
aI3558
aI145
aI1651
aI144
aI143
aI1202
aI3184
aI2820
aI3779
aI3794
aI2996
aI1193
aI2626
aI3479
aI55
aI2371
aI3174
aI1437
aI1266
aI1354
aI1627
aI965
aI118
aI3014
aI3684
aI46
aI1104
aI2655
aI2375
aI3535
aI3061
aI3020
aI2691
aI2369
aI120
aI2084
aI3365
aI1318
aI1357
aI3426
aI116
aI3027
aI119
aI1284
aI115
aI121
aI2191
aI3814
aI117
aI4134
aI1367
a.